; Function Attrs: mustprogress nofree norecurse nosync nounwind willreturn memory(argmem: read) uwtable
define hidden ptr @av1_iqmatrix(ptr nocapture noundef readonly %0, i32 noundef %1, i32 noundef %2, i8 noundef zeroext %3) local_unnamed_addr #1 {
  %5 = getelementptr inbounds nuw i8, ptr %0, i64 120
  %6 = sext i32 %1 to i64
  %7 = sext i32 %2 to i64
  %8 = zext i8 %3 to i64
  %9 = getelementptr inbounds [16 x [3 x [19 x ptr]]], ptr %5, i64 0, i64 %6, i64 %7, i64 %8
  %10 = load ptr, ptr %9, align 8
  ret ptr %10
}